Certificate:
    Data:
        Version: 1 (0x0)
        Serial Number: 1 (0x1)
        Signature Algorithm: sha256WithRSAEncryption
        Issuer: CN=ISPC_CA
        Validity
            Not Before: May 15 00:00:00 2026 GMT
            Not After : May 15 00:00:00 2027 GMT
        Subject: CN=ISPC_CA
        Subject Public Key Info:
            Public Key Algorithm: rsaEncryption
                Public-Key: (2048 bit)
                Modulus:
                    00:c4:21:c6:3b:53:16:9c:de:2e:bd:cb:c2:2f:6f:
                    94:87:74:fa:02:68:77:84:5a:f9:e6:37:f2:70:e3:
                    61:8a:ed:f8:3c:e0:fc:16:a6:b8:f7:84:19:08:d2:
                    d2:0a:ca:6b:ba:29:eb:dc:92:bd:72:c8:05:60:86:
                    4a:19:54:56:25:3d:cc:2e:9c:62:de:70:01:e4:61:
                    cd:bb:1a:82:4a:b2:5b:b3:7f:43:9e:0b:21:1c:a8:
                    1f:05:2e:6b:d3:47:79:c3:b8:fc:07:6f:af:e7:4c:
                    c8:0a:d5:a0:f5:26:8f:47:e0:b7:fa:80:32:42:79:
                    94:8b:79:51:5f:24:3d:28:5f:82:06:38:d4:29:e7:
                    f9:4d:74:77:cd:fe:b3:0c:82:1e:54:c2:ce:8f:9a:
                    23:14:5f:66:3d:dd:93:65:34:f1:01:75:1c:c2:fb:
                    ad:9f:a2:d6:be:80:a5:f2:27:1f:89:fc:ac:30:5c:
                    16:76:b2:04:ef:ce:0c:ee:60:42:6b:2f:89:3c:03:
                    cd:ec:91:fc:5b:c2:52:6e:9b:36:b4:f6:ab:90:4c:
                    36:54:66:39:cb:01:ac:1c:18:6a:af:10:97:c9:07:
                    a1:40:09:55:16:a8:bd:71:db:36:5a:0b:08:56:e6:
                    2e:eb:88:83:a9:e7:9a:ab:8b:47:02:19:88:89:5e:
                    12:a5
                Exponent: 65537 (0x10001)
    Signature Algorithm: sha256WithRSAEncryption
    Signature Value:
        6b:52:cc:8c:61:3c:ce:88:2e:cb:50:18:1f:7f:04:fd:98:05:
        5d:d8:ef:b0:42:a6:6a:3e:7a:3d:25:7c:95:81:5e:44:0b:19:
        50:cd:de:53:99:70:4f:f6:e3:b2:1d:d9:b9:1a:f0:b3:0f:25:
        e6:b9:1a:54:26:25:a2:25:ed:27:91:06:6b:bd:e3:c5:7f:f9:
        86:f1:27:9c:ea:2d:77:0d:a4:99:a5:ae:12:d9:f1:d0:dc:e2:
        c1:53:59:82:b1:47:49:32:3a:b8:e0:3a:6e:b9:06:09:a8:b9:
        15:f0:e8:8b:5e:fc:ae:e1:3c:0a:fa:4f:7f:cc:d3:c4:b7:b1:
        43:90:7f:69:a6:60:97:29:03:f7:ee:98:c1:6b:9f:4a:f5:90:
        e4:14:a7:36:9c:1a:ca:32:27:6f:91:19:f2:35:2b:f7:94:9c:
        9f:dd:5c:db:c3:5d:6a:24:2f:0f:9b:b8:ed:35:3d:2d:82:e6:
        d3:a7:f3:32:fa:ad:ba:13:26:91:b9:c1:45:79:d2:da:e5:d1:
        d8:3a:fa:0b:f5:90:60:3f:70:32:26:86:5d:da:b7:8a:20:c4:
        b9:48:cb:cd:47:43:0f:9b:b6:fa:55:a2:1e:a6:39:bb:cf:1f:
        6f:23:47:8c:3e:68:48:c8:3f:f1:10:c7:c1:fe:4d:de:16:11:
        a6:4a:e4:81
-----BEGIN CERTIFICATE-----
MIICmDCCAYACAQEwDQYJKoZIhvcNAQELBQAwEjEQMA4GA1UEAwwHSVNQQ19DQTAe
Fw0yNjA1MTUwMDAwMDBaFw0yNzA1MTUwMDAwMDBaMBIxEDAOBgNVBAMMB0lTUENf
Q0EwggEiMA0GCSqGSIb3DQEBAQUAA4IBDwAwggEKAoIBAQDEIcY7Uxac3i69y8Iv
b5SHdPoCaHeEWvnmN/Jw42GK7fg84PwWprj3hBkI0tIKymu6Kevckr1yyAVghkoZ
VFYlPcwunGLecAHkYc27GoJKsluzf0OeCyEcqB8FLmvTR3nDuPwHb6/nTMgK1aD1
Jo9H4Lf6gDJCeZSLeVFfJD0oX4IGONQp5/lNdHfN/rMMgh5Uws6PmiMUX2Y93ZNl
NPEBdRzC+62fota+gKXyJx+J/KwwXBZ2sgTvzgzuYEJrL4k8A83skfxbwlJumza0
9quQTDZUZjnLAawcGGqvEJfJB6FACVUWqL1x2zZaCwhW5i7riIOp55qri0cCGYiJ
XhKlAgMBAAEwDQYJKoZIhvcNAQELBQADggEBAGtSzIxhPM6ILstQGB9/BP2YBV3Y
77BCpmo+ej0lfJWBXkQLGVDN3lOZcE/247Id2bka8LMPJea5GlQmJaIl7SeRBmu9
48V/+YbxJ5zqLXcNpJmlrhLZ8dDc4sFTWYKxR0kyOrjgOm65BgmouRXw6Ite/K7h
PAr6T3/M08S3sUOQf2mmYJcpA/fumMFrn0r1kOQUpzacGsoyJ2+RGfI1K/eUnJ/d
XNvDXWokLw+buO01PS2C5tOn8zL6rboTJpG5wUV50trl0dg6+gv1kGA/cDImhl3a
t4ogxLlIy81HQw+btvpVoh6mObvPH28jR4w+aEjIP/EQx8H+Td4WEaZK5IE=
-----END CERTIFICATE-----
